target datalayout = "e-m:e-p270:32:32-p271:32:32-p272:64:64-i64:64-i128:128-f80:128-n8:16:32:64-S128"
target triple = "x86_64-pc-linux-gnu"

%struct.Gia_Obj_t_ = type <{ i64, i32 }>

; Function Attrs: nounwind uwtable
define internal ptr @Gia_NotCond(ptr noundef %0, i32 noundef %1) #0 {
  %3 = alloca ptr, align 8
  %4 = alloca i32, align 4
  store ptr %0, ptr %3, align 8
  store i32 %1, ptr %4, align 4
  %5 = load ptr, ptr %3, align 8
  %6 = ptrtoint ptr %5 to i64
  %7 = load i32, ptr %4, align 4
  %8 = sext i32 %7 to i64
  %9 = xor i64 %6, %8
  %10 = inttoptr i64 %9 to ptr
  ret ptr %10
}

; Function Attrs: nounwind uwtable
define internal i32 @Gia_ObjFaninC1(ptr noundef %0) #0 {
  %2 = alloca ptr, align 8
  store ptr %0, ptr %2, align 8
  %3 = load ptr, ptr %2, align 8
  %4 = load i64, ptr %3, align 4
  %5 = lshr i64 %4, 61
  %6 = and i64 %5, 1
  %7 = trunc i64 %6 to i32
  ret i32 %7
}

; Function Attrs: nounwind uwtable
define internal i32 @Gia_ObjFaninC0(ptr noundef %0) #0 {
  %2 = alloca ptr, align 8
  store ptr %0, ptr %2, align 8
  %3 = load ptr, ptr %2, align 8
  %4 = load i64, ptr %3, align 4
  %5 = lshr i64 %4, 29
  %6 = and i64 %5, 1
  %7 = trunc i64 %6 to i32
  ret i32 %7
}

; Function Attrs: nounwind uwtable
define internal ptr @Gia_ObjFanin1(ptr noundef %0) #0 {
  %2 = alloca ptr, align 8
  store ptr %0, ptr %2, align 8
  %3 = load ptr, ptr %2, align 8
  %4 = load ptr, ptr %2, align 8
  %5 = load i64, ptr %4, align 4
  %6 = lshr i64 %5, 32
  %7 = and i64 %6, 536870911
  %8 = trunc i64 %7 to i32
  %9 = sext i32 %8 to i64
  %10 = sub i64 0, %9
  %11 = getelementptr inbounds %struct.Gia_Obj_t_, ptr %3, i64 %10
  ret ptr %11
}

; Function Attrs: nounwind uwtable
define internal ptr @Gia_ObjFanin0(ptr noundef %0) #0 {
  %2 = alloca ptr, align 8
  store ptr %0, ptr %2, align 8
  %3 = load ptr, ptr %2, align 8
  %4 = load ptr, ptr %2, align 8
  %5 = load i64, ptr %4, align 4
  %6 = and i64 %5, 536870911
  %7 = trunc i64 %6 to i32
  %8 = sext i32 %7 to i64
  %9 = sub i64 0, %8
  %10 = getelementptr inbounds %struct.Gia_Obj_t_, ptr %3, i64 %9
  ret ptr %10
}

; Function Attrs: nounwind uwtable
define internal ptr @Gia_Regular(ptr noundef %0) #0 {
  %2 = alloca ptr, align 8
  store ptr %0, ptr %2, align 8
  %3 = load ptr, ptr %2, align 8
  %4 = ptrtoint ptr %3 to i64
  %5 = and i64 %4, -2
  %6 = inttoptr i64 %5 to ptr
  ret ptr %6
}

; Function Attrs: nounwind uwtable
define internal i32 @Gia_IsComplement(ptr noundef %0) #0 {
  %2 = alloca ptr, align 8
  store ptr %0, ptr %2, align 8
  %3 = load ptr, ptr %2, align 8
  %4 = ptrtoint ptr %3 to i64
  %5 = and i64 %4, 1
  %6 = trunc i64 %5 to i32
  ret i32 %6
}

; Function Attrs: nounwind uwtable
define internal ptr @Gia_ObjChild1(ptr noundef %0) #0 {
  %2 = alloca ptr, align 8
  store ptr %0, ptr %2, align 8
  %3 = load ptr, ptr %2, align 8
  %4 = call ptr @Gia_ObjFanin1(ptr noundef %3)
  %5 = load ptr, ptr %2, align 8
  %6 = call i32 @Gia_ObjFaninC1(ptr noundef %5)
  %7 = call ptr @Gia_NotCond(ptr noundef %4, i32 noundef %6)
  ret ptr %7
}

; Function Attrs: nounwind uwtable
define internal ptr @Gia_ObjChild0(ptr noundef %0) #0 {
  %2 = alloca ptr, align 8
  store ptr %0, ptr %2, align 8
  %3 = load ptr, ptr %2, align 8
  %4 = call ptr @Gia_ObjFanin0(ptr noundef %3)
  %5 = load ptr, ptr %2, align 8
  %6 = call i32 @Gia_ObjFaninC0(ptr noundef %5)
  %7 = call ptr @Gia_NotCond(ptr noundef %4, i32 noundef %6)
  ret ptr %7
}

; Function Attrs: nounwind uwtable
define internal i32 @Gia_ObjIsBuf(ptr noundef %0) #0 {
  %2 = alloca ptr, align 8
  store ptr %0, ptr %2, align 8
  %3 = load ptr, ptr %2, align 8
  %4 = load i64, ptr %3, align 4
  %5 = and i64 %4, 536870911
  %6 = trunc i64 %5 to i32
  %7 = load ptr, ptr %2, align 8
  %8 = load i64, ptr %7, align 4
  %9 = lshr i64 %8, 32
  %10 = and i64 %9, 536870911
  %11 = trunc i64 %10 to i32
  %12 = icmp eq i32 %6, %11
  br i1 %12, label %13, label %27

13:                                               ; preds = %1
  %14 = load ptr, ptr %2, align 8
  %15 = load i64, ptr %14, align 4
  %16 = and i64 %15, 536870911
  %17 = trunc i64 %16 to i32
  %18 = icmp ne i32 %17, 536870911
  br i1 %18, label %19, label %27

19:                                               ; preds = %13
  %20 = load ptr, ptr %2, align 8
  %21 = load i64, ptr %20, align 4
  %22 = lshr i64 %21, 31
  %23 = and i64 %22, 1
  %24 = trunc i64 %23 to i32
  %25 = icmp ne i32 %24, 0
  %26 = xor i1 %25, true
  br label %27

27:                                               ; preds = %19, %13, %1
  %28 = phi i1 [ false, %13 ], [ false, %1 ], [ %26, %19 ]
  %29 = zext i1 %28 to i32
  ret i32 %29
}

; Function Attrs: nounwind uwtable
define internal i32 @Gia_ObjIsAnd(ptr noundef %0) #0 {
  %2 = alloca ptr, align 8
  store ptr %0, ptr %2, align 8
  %3 = load ptr, ptr %2, align 8
  %4 = load i64, ptr %3, align 4
  %5 = lshr i64 %4, 31
  %6 = and i64 %5, 1
  %7 = trunc i64 %6 to i32
  %8 = icmp ne i32 %7, 0
  br i1 %8, label %15, label %9

9:                                                ; preds = %1
  %10 = load ptr, ptr %2, align 8
  %11 = load i64, ptr %10, align 4
  %12 = and i64 %11, 536870911
  %13 = trunc i64 %12 to i32
  %14 = icmp ne i32 %13, 536870911
  br label %15

15:                                               ; preds = %9, %1
  %16 = phi i1 [ false, %1 ], [ %14, %9 ]
  %17 = zext i1 %16 to i32
  ret i32 %17
}

; Function Attrs: nounwind uwtable
define i32 @Gia_ObjRecognizeExor(ptr noundef %0, ptr noundef %1, ptr noundef %2) #0 {
  %4 = alloca i32, align 4
  %5 = alloca ptr, align 8
  %6 = alloca ptr, align 8
  %7 = alloca ptr, align 8
  %8 = alloca ptr, align 8
  %9 = alloca ptr, align 8
  store ptr %0, ptr %5, align 8
  store ptr %1, ptr %6, align 8
  store ptr %2, ptr %7, align 8
  %10 = load ptr, ptr %5, align 8
  %11 = call i32 @Gia_ObjIsAnd(ptr noundef %10)
  %12 = icmp ne i32 %11, 0
  br i1 %12, label %13, label %17

13:                                               ; preds = %3
  %14 = load ptr, ptr %5, align 8
  %15 = call i32 @Gia_ObjIsBuf(ptr noundef %14)
  %16 = icmp ne i32 %15, 0
  br i1 %16, label %17, label %18

17:                                               ; preds = %13, %3
  store i32 0, ptr %4, align 4
  br label %85

18:                                               ; preds = %13
  %19 = load ptr, ptr %5, align 8
  %20 = call ptr @Gia_ObjChild0(ptr noundef %19)
  store ptr %20, ptr %8, align 8
  %21 = load ptr, ptr %5, align 8
  %22 = call ptr @Gia_ObjChild1(ptr noundef %21)
  store ptr %22, ptr %9, align 8
  %23 = load ptr, ptr %8, align 8
  %24 = call i32 @Gia_IsComplement(ptr noundef %23)
  %25 = icmp ne i32 %24, 0
  br i1 %25, label %26, label %30

26:                                               ; preds = %18
  %27 = load ptr, ptr %9, align 8
  %28 = call i32 @Gia_IsComplement(ptr noundef %27)
  %29 = icmp ne i32 %28, 0
  br i1 %29, label %31, label %30

30:                                               ; preds = %26, %18
  store i32 0, ptr %4, align 4
  br label %85

31:                                               ; preds = %26
  %32 = load ptr, ptr %8, align 8
  %33 = call ptr @Gia_Regular(ptr noundef %32)
  store ptr %33, ptr %8, align 8
  %34 = load ptr, ptr %9, align 8
  %35 = call ptr @Gia_Regular(ptr noundef %34)
  store ptr %35, ptr %9, align 8
  %36 = load ptr, ptr %8, align 8
  %37 = call i32 @Gia_ObjIsAnd(ptr noundef %36)
  %38 = icmp ne i32 %37, 0
  br i1 %38, label %39, label %43

39:                                               ; preds = %31
  %40 = load ptr, ptr %9, align 8
  %41 = call i32 @Gia_ObjIsAnd(ptr noundef %40)
  %42 = icmp ne i32 %41, 0
  br i1 %42, label %44, label %43

43:                                               ; preds = %39, %31
  store i32 0, ptr %4, align 4
  br label %85

44:                                               ; preds = %39
  %45 = load ptr, ptr %8, align 8
  %46 = call ptr @Gia_ObjFanin0(ptr noundef %45)
  %47 = load ptr, ptr %9, align 8
  %48 = call ptr @Gia_ObjFanin0(ptr noundef %47)
  %49 = icmp ne ptr %46, %48
  br i1 %49, label %56, label %50

50:                                               ; preds = %44
  %51 = load ptr, ptr %8, align 8
  %52 = call ptr @Gia_ObjFanin1(ptr noundef %51)
  %53 = load ptr, ptr %9, align 8
  %54 = call ptr @Gia_ObjFanin1(ptr noundef %53)
  %55 = icmp ne ptr %52, %54
  br i1 %55, label %56, label %57

56:                                               ; preds = %50, %44
  store i32 0, ptr %4, align 4
  br label %85

57:                                               ; preds = %50
  %58 = load ptr, ptr %8, align 8
  %59 = call i32 @Gia_ObjFaninC0(ptr noundef %58)
  %60 = load ptr, ptr %9, align 8
  %61 = call i32 @Gia_ObjFaninC0(ptr noundef %60)
  %62 = icmp eq i32 %59, %61
  br i1 %62, label %69, label %63

63:                                               ; preds = %57
  %64 = load ptr, ptr %8, align 8
  %65 = call i32 @Gia_ObjFaninC1(ptr noundef %64)
  %66 = load ptr, ptr %9, align 8
  %67 = call i32 @Gia_ObjFaninC1(ptr noundef %66)
  %68 = icmp eq i32 %65, %67
  br i1 %68, label %69, label %70

69:                                               ; preds = %63, %57
  store i32 0, ptr %4, align 4
  br label %85

70:                                               ; preds = %63
  %71 = load ptr, ptr %6, align 8
  %72 = icmp ne ptr %71, null
  br i1 %72, label %73, label %77

73:                                               ; preds = %70
  %74 = load ptr, ptr %8, align 8
  %75 = call ptr @Gia_ObjChild0(ptr noundef %74)
  %76 = load ptr, ptr %6, align 8
  store ptr %75, ptr %76, align 8
  br label %77

77:                                               ; preds = %73, %70
  %78 = load ptr, ptr %7, align 8
  %79 = icmp ne ptr %78, null
  br i1 %79, label %80, label %84

80:                                               ; preds = %77
  %81 = load ptr, ptr %8, align 8
  %82 = call ptr @Gia_ObjChild1(ptr noundef %81)
  %83 = load ptr, ptr %7, align 8
  store ptr %82, ptr %83, align 8
  br label %84

84:                                               ; preds = %80, %77
  store i32 1, ptr %4, align 4
  br label %85

85:                                               ; preds = %84, %69, %56, %43, %30, %17
  %86 = load i32, ptr %4, align 4
  ret i32 %86
}