; Function Attrs: mustprogress nofree norecurse nosync nounwind willreturn memory(read, argmem: readwrite, inaccessiblemem: none) uwtable
define range(i32 0, 2) i32 @Gia_ObjRecognizeExor(ptr noundef %0, ptr noundef writeonly %1, ptr noundef writeonly %2) local_unnamed_addr #13 {
  %.val36 = load i64, ptr %0, align 4
  %4 = and i64 %.val36, 2147483648
  %.not.i = icmp eq i64 %4, 0
  %5 = and i64 %.val36, 536870911
  %6 = icmp ne i64 %5, 536870911
  %narrow.i = and i1 %.not.i, %6
  br i1 %narrow.i, label %7, label %76

7:                                                ; preds = %3
  %8 = trunc i64 %.val36 to i32
  %9 = and i32 %8, 536870911
  %10 = lshr i64 %.val36, 32
  %11 = trunc nuw i64 %10 to i32
  %12 = and i32 %11, 536870911
  %13 = icmp eq i32 %9, %12
  %.not.i42 = icmp ne i32 %9, 536870911
  %or.cond.not.i = and i1 %.not.i42, %13
  br i1 %or.cond.not.i, label %76, label %14

14:                                               ; preds = %7
  %15 = sub nsw i64 0, %5
  %16 = getelementptr inbounds %struct.Gia_Obj_t_, ptr %0, i64 %15
  %17 = lshr i64 %.val36, 29
  %18 = ptrtoint ptr %16 to i64
  %19 = xor i64 %17, %18
  %20 = and i64 %10, 536870911
  %21 = sub nsw i64 0, %20
  %22 = getelementptr inbounds %struct.Gia_Obj_t_, ptr %0, i64 %21
  %23 = lshr i64 %.val36, 61
  %24 = ptrtoint ptr %22 to i64
  %25 = xor i64 %23, %24
  %26 = and i64 %19, 1
  %.not27 = icmp eq i64 %26, 0
  %27 = and i64 %25, 1
  %.not28 = icmp eq i64 %27, 0
  %or.cond = select i1 %.not27, i1 true, i1 %.not28
  br i1 %or.cond, label %76, label %28

28:                                               ; preds = %14
  %29 = and i64 %18, -2
  %30 = inttoptr i64 %29 to ptr
  %31 = and i64 %24, -2
  %32 = inttoptr i64 %31 to ptr
  %.val35 = load i64, ptr %30, align 4
  %33 = and i64 %.val35, 2147483648
  %.not.i44 = icmp ne i64 %33, 0
  %34 = and i64 %.val35, 536870911
  %35 = icmp eq i64 %34, 536870911
  %narrow.i45.not = or i1 %.not.i44, %35
  br i1 %narrow.i45.not, label %76, label %36

36:                                               ; preds = %28
  %.val = load i64, ptr %32, align 4
  %37 = and i64 %.val, 2147483648
  %.not.i46 = icmp ne i64 %37, 0
  %38 = and i64 %.val, 536870911
  %39 = icmp eq i64 %38, 536870911
  %narrow.i47.not = or i1 %.not.i46, %39
  br i1 %narrow.i47.not, label %76, label %40

40:                                               ; preds = %36
  %41 = sub nsw i64 0, %34
  %42 = getelementptr inbounds %struct.Gia_Obj_t_, ptr %30, i64 %41
  %43 = sub nsw i64 0, %38
  %44 = getelementptr inbounds %struct.Gia_Obj_t_, ptr %32, i64 %43
  %.not31 = icmp eq ptr %42, %44
  br i1 %.not31, label %45, label %76

45:                                               ; preds = %40
  %46 = lshr i64 %.val35, 32
  %47 = and i64 %46, 536870911
  %48 = sub nsw i64 0, %47
  %49 = getelementptr inbounds %struct.Gia_Obj_t_, ptr %30, i64 %48
  %50 = lshr i64 %.val, 32
  %51 = and i64 %50, 536870911
  %52 = sub nsw i64 0, %51
  %53 = getelementptr inbounds %struct.Gia_Obj_t_, ptr %32, i64 %52
  %.not32 = icmp eq ptr %49, %53
  br i1 %.not32, label %54, label %76

54:                                               ; preds = %45
  %55 = xor i64 %.val, %.val35
  %56 = and i64 %55, 2305843009750564864
  %or.cond50.not = icmp eq i64 %56, 2305843009750564864
  br i1 %or.cond50.not, label %57, label %76

57:                                               ; preds = %54
  %.not33 = icmp eq ptr %1, null
  br i1 %.not33, label %64, label %58

58:                                               ; preds = %57
  %59 = lshr i64 %.val35, 29
  %60 = and i64 %59, 1
  %61 = ptrtoint ptr %42 to i64
  %62 = or disjoint i64 %60, %61
  %63 = inttoptr i64 %62 to ptr
  store ptr %63, ptr %1, align 8
  br label %64

64:                                               ; preds = %58, %57
  %.not34 = icmp eq ptr %2, null
  br i1 %.not34, label %76, label %65

65:                                               ; preds = %64
  %66 = load i64, ptr %30, align 4
  %67 = lshr i64 %66, 32
  %68 = and i64 %67, 536870911
  %69 = sub nsw i64 0, %68
  %70 = getelementptr inbounds %struct.Gia_Obj_t_, ptr %30, i64 %69
  %71 = lshr i64 %66, 61
  %72 = and i64 %71, 1
  %73 = ptrtoint ptr %70 to i64
  %74 = or disjoint i64 %72, %73
  %75 = inttoptr i64 %74 to ptr
  store ptr %75, ptr %2, align 8
  br label %76

76:                                               ; preds = %64, %65, %54, %40, %45, %28, %36, %14, %3, %7
  %.0 = phi i32 [ 0, %7 ], [ 0, %3 ], [ 0, %14 ], [ 0, %36 ], [ 0, %28 ], [ 0, %45 ], [ 0, %40 ], [ 0, %54 ], [ 1, %65 ], [ 1, %64 ]
  ret i32 %.0
}